target datalayout = "e-m:e-p270:32:32-p271:32:32-p272:64:64-i64:64-i128:128-f80:128-n8:16:32:64-S128"
target triple = "x86_64-pc-linux-gnu"

%struct.sentinelState = type { [41 x i8], i64, ptr, i32, i32, i64, i64, ptr, ptr, i32, i64, i32, ptr, ptr, i32, i32 }
%struct.sentinelRedisInstance = type { i32, ptr, ptr, i64, ptr, ptr, i64, i64, i64, i64, i64, i64, i64, i64, i64, ptr, i32, i64, i64, ptr, ptr, i32, i32, ptr, ptr, i64, i32, i32, i64, ptr, ptr, i32, i32, i64, ptr, i64, i64, i32, i64, i64, i64, i64, ptr, ptr, ptr, ptr }
%struct.sentinelAddr = type { ptr, ptr, i32 }
%struct.instanceLink = type { i32, i32, i32, ptr, ptr, i64, i64, i64, i64, i64, i64, i64, i64 }
%struct.redisAsyncContext = type { %struct.redisContext, i32, ptr, ptr, ptr, %struct.anon.2, ptr, ptr, ptr, %struct.redisCallbackList, ptr, i64, %struct.anon.3, ptr }
%struct.redisContext = type { ptr, i32, [128 x i8], i32, i32, ptr, ptr, i32, ptr, ptr, %struct.anon.0, %struct.anon.1, ptr, i64, ptr, ptr, ptr, ptr }
%struct.anon.0 = type { ptr, ptr, i32 }
%struct.anon.1 = type { ptr }
%struct.anon.2 = type { ptr, ptr, ptr, ptr, ptr, ptr, ptr }
%struct.redisCallbackList = type { ptr, ptr }
%struct.anon.3 = type { %struct.redisCallbackList, ptr, ptr, i32 }

@sentinel = dso_local global %struct.sentinelState zeroinitializer, align 8
@.str.21 = private unnamed_addr constant [11 x i8] c"sentinel.c\00", align 1
@.str.42 = private unnamed_addr constant [25 x i8] c"ri->flags & SRI_SENTINEL\00", align 1
@.str.44 = private unnamed_addr constant [25 x i8] c"+sentinel-address-update\00", align 1
@.str.45 = private unnamed_addr constant [36 x i8] c"%@ %d additional matching instances\00", align 1

; Function Attrs: nounwind uwtable
define dso_local ptr @dupSentinelAddr(ptr noundef %0) #0 {
  %2 = alloca ptr, align 8
  %3 = alloca ptr, align 8
  store ptr %0, ptr %2, align 8, !tbaa !94
  call void @llvm.lifetime.start.p0(i64 8, ptr %3) #16
  %4 = call noalias ptr @zmalloc(i64 noundef 24) #18
  store ptr %4, ptr %3, align 8, !tbaa !94
  %5 = load ptr, ptr %2, align 8, !tbaa !94
  %6 = getelementptr inbounds nuw %struct.sentinelAddr, ptr %5, i32 0, i32 0
  %7 = load ptr, ptr %6, align 8, !tbaa !95
  %8 = call ptr @sdsnew(ptr noundef %7)
  %9 = load ptr, ptr %3, align 8, !tbaa !94
  %10 = getelementptr inbounds nuw %struct.sentinelAddr, ptr %9, i32 0, i32 0
  store ptr %8, ptr %10, align 8, !tbaa !95
  %11 = load ptr, ptr %2, align 8, !tbaa !94
  %12 = getelementptr inbounds nuw %struct.sentinelAddr, ptr %11, i32 0, i32 1
  %13 = load ptr, ptr %12, align 8, !tbaa !97
  %14 = call ptr @sdsnew(ptr noundef %13)
  %15 = load ptr, ptr %3, align 8, !tbaa !94
  %16 = getelementptr inbounds nuw %struct.sentinelAddr, ptr %15, i32 0, i32 1
  store ptr %14, ptr %16, align 8, !tbaa !97
  %17 = load ptr, ptr %2, align 8, !tbaa !94
  %18 = getelementptr inbounds nuw %struct.sentinelAddr, ptr %17, i32 0, i32 2
  %19 = load i32, ptr %18, align 8, !tbaa !98
  %20 = load ptr, ptr %3, align 8, !tbaa !94
  %21 = getelementptr inbounds nuw %struct.sentinelAddr, ptr %20, i32 0, i32 2
  store i32 %19, ptr %21, align 8, !tbaa !98
  %22 = load ptr, ptr %3, align 8, !tbaa !94
  call void @llvm.lifetime.end.p0(i64 8, ptr %3) #16
  ret ptr %22
}

; Function Attrs: nounwind uwtable
define dso_local void @releaseSentinelAddr(ptr noundef %0) #0 {
  %2 = alloca ptr, align 8
  store ptr %0, ptr %2, align 8, !tbaa !94
  %3 = load ptr, ptr %2, align 8, !tbaa !94
  %4 = getelementptr inbounds nuw %struct.sentinelAddr, ptr %3, i32 0, i32 0
  %5 = load ptr, ptr %4, align 8, !tbaa !95
  call void @sdsfree(ptr noundef %5)
  %6 = load ptr, ptr %2, align 8, !tbaa !94
  %7 = getelementptr inbounds nuw %struct.sentinelAddr, ptr %6, i32 0, i32 1
  %8 = load ptr, ptr %7, align 8, !tbaa !97
  call void @sdsfree(ptr noundef %8)
  %9 = load ptr, ptr %2, align 8, !tbaa !94
  call void @zfree(ptr noundef %9)
  ret void
}

; Function Attrs: nounwind uwtable
define dso_local void @instanceLinkCloseConnection(ptr noundef %0, ptr noundef %1) #0 {
  %3 = alloca ptr, align 8
  %4 = alloca ptr, align 8
  store ptr %0, ptr %3, align 8, !tbaa !129
  store ptr %1, ptr %4, align 8, !tbaa !145
  %5 = load ptr, ptr %4, align 8, !tbaa !145
  %6 = icmp eq ptr %5, null
  br i1 %6, label %7, label %8

7:                                                ; preds = %2
  br label %34

8:                                                ; preds = %2
  %9 = load ptr, ptr %3, align 8, !tbaa !129
  %10 = getelementptr inbounds nuw %struct.instanceLink, ptr %9, i32 0, i32 3
  %11 = load ptr, ptr %10, align 8, !tbaa !135
  %12 = load ptr, ptr %4, align 8, !tbaa !145
  %13 = icmp eq ptr %11, %12
  br i1 %13, label %14, label %19

14:                                               ; preds = %8
  %15 = load ptr, ptr %3, align 8, !tbaa !129
  %16 = getelementptr inbounds nuw %struct.instanceLink, ptr %15, i32 0, i32 3
  store ptr null, ptr %16, align 8, !tbaa !135
  %17 = load ptr, ptr %3, align 8, !tbaa !129
  %18 = getelementptr inbounds nuw %struct.instanceLink, ptr %17, i32 0, i32 2
  store i32 0, ptr %18, align 8, !tbaa !134
  br label %19

19:                                               ; preds = %14, %8
  %20 = load ptr, ptr %3, align 8, !tbaa !129
  %21 = getelementptr inbounds nuw %struct.instanceLink, ptr %20, i32 0, i32 4
  %22 = load ptr, ptr %21, align 8, !tbaa !136
  %23 = load ptr, ptr %4, align 8, !tbaa !145
  %24 = icmp eq ptr %22, %23
  br i1 %24, label %25, label %28

25:                                               ; preds = %19
  %26 = load ptr, ptr %3, align 8, !tbaa !129
  %27 = getelementptr inbounds nuw %struct.instanceLink, ptr %26, i32 0, i32 4
  store ptr null, ptr %27, align 8, !tbaa !136
  br label %28

28:                                               ; preds = %25, %19
  %29 = load ptr, ptr %4, align 8, !tbaa !145
  %30 = getelementptr inbounds nuw %struct.redisAsyncContext, ptr %29, i32 0, i32 3
  store ptr null, ptr %30, align 8, !tbaa !146
  %31 = load ptr, ptr %3, align 8, !tbaa !129
  %32 = getelementptr inbounds nuw %struct.instanceLink, ptr %31, i32 0, i32 1
  store i32 1, ptr %32, align 4, !tbaa !133
  %33 = load ptr, ptr %4, align 8, !tbaa !145
  call void @redisAsyncFree(ptr noundef %33)
  br label %34

34:                                               ; preds = %28, %7
  ret void
}

; Function Attrs: nounwind uwtable
define dso_local i32 @sentinelUpdateSentinelAddressInAllMasters(ptr noundef %0) #0 {
  %2 = alloca ptr, align 8
  %3 = alloca ptr, align 8
  %4 = alloca ptr, align 8
  %5 = alloca i32, align 4
  %6 = alloca ptr, align 8
  %7 = alloca ptr, align 8
  %8 = alloca i32, align 4
  store ptr %0, ptr %2, align 8, !tbaa !11
  %9 = load ptr, ptr %2, align 8, !tbaa !11
  %10 = getelementptr inbounds nuw %struct.sentinelRedisInstance, ptr %9, i32 0, i32 0
  %11 = load i32, ptr %10, align 8, !tbaa !34
  %12 = and i32 %11, 4
  %13 = icmp ne i32 %12, 0
  %14 = xor i1 %13, true
  %15 = xor i1 %14, true
  %16 = zext i1 %15 to i32
  %17 = sext i32 %16 to i64
  %18 = call i64 @llvm.expect.i64(i64 %17, i64 1)
  %19 = icmp ne i64 %18, 0
  br i1 %19, label %20, label %21

20:                                               ; preds = %1
  br label %23

21:                                               ; preds = %1
  call void @_serverAssert(ptr noundef @.str.42, ptr noundef @.str.21, i32 noundef 1174)
  call void @abort() #15
  unreachable

22:                                               ; No predecessors!
  br label %23

23:                                               ; preds = %22, %20
  call void @llvm.lifetime.start.p0(i64 8, ptr %3) #16
  call void @llvm.lifetime.start.p0(i64 8, ptr %4) #16
  call void @llvm.lifetime.start.p0(i64 4, ptr %5) #16
  store i32 0, ptr %5, align 4, !tbaa !82
  %24 = load ptr, ptr getelementptr inbounds nuw (%struct.sentinelState, ptr @sentinel, i32 0, i32 2), align 8, !tbaa !65
  %25 = call ptr @dictGetIterator(ptr noundef %24)
  store ptr %25, ptr %3, align 8, !tbaa !87
  br label %26

26:                                               ; preds = %94, %92, %23
  %27 = load ptr, ptr %3, align 8, !tbaa !87
  %28 = call ptr @dictNext(ptr noundef %27)
  store ptr %28, ptr %4, align 8, !tbaa !89
  %29 = icmp ne ptr %28, null
  br i1 %29, label %30, label %95

30:                                               ; preds = %26
  call void @llvm.lifetime.start.p0(i64 8, ptr %6) #16
  %31 = load ptr, ptr %4, align 8, !tbaa !89
  %32 = call ptr @dictGetVal(ptr noundef %31)
  store ptr %32, ptr %6, align 8, !tbaa !11
  call void @llvm.lifetime.start.p0(i64 8, ptr %7) #16
  %33 = load ptr, ptr %6, align 8, !tbaa !11
  %34 = getelementptr inbounds nuw %struct.sentinelRedisInstance, ptr %33, i32 0, i32 19
  %35 = load ptr, ptr %34, align 8, !tbaa !13
  %36 = load ptr, ptr %2, align 8, !tbaa !11
  %37 = getelementptr inbounds nuw %struct.sentinelRedisInstance, ptr %36, i32 0, i32 2
  %38 = load ptr, ptr %37, align 8, !tbaa !24
  %39 = call ptr @getSentinelRedisInstanceByAddrAndRunID(ptr noundef %35, ptr noundef null, i32 noundef 0, ptr noundef %38)
  store ptr %39, ptr %7, align 8, !tbaa !11
  %40 = load ptr, ptr %7, align 8, !tbaa !11
  %41 = icmp eq ptr %40, null
  br i1 %41, label %42, label %43

42:                                               ; preds = %30
  store i32 2, ptr %8, align 4
  br label %92, !llvm.loop !173

43:                                               ; preds = %30
  %44 = load ptr, ptr %7, align 8, !tbaa !11
  %45 = getelementptr inbounds nuw %struct.sentinelRedisInstance, ptr %44, i32 0, i32 5
  %46 = load ptr, ptr %45, align 8, !tbaa !22
  %47 = getelementptr inbounds nuw %struct.instanceLink, ptr %46, i32 0, i32 3
  %48 = load ptr, ptr %47, align 8, !tbaa !135
  %49 = icmp ne ptr %48, null
  br i1 %49, label %50, label %59

50:                                               ; preds = %43
  %51 = load ptr, ptr %7, align 8, !tbaa !11
  %52 = getelementptr inbounds nuw %struct.sentinelRedisInstance, ptr %51, i32 0, i32 5
  %53 = load ptr, ptr %52, align 8, !tbaa !22
  %54 = load ptr, ptr %7, align 8, !tbaa !11
  %55 = getelementptr inbounds nuw %struct.sentinelRedisInstance, ptr %54, i32 0, i32 5
  %56 = load ptr, ptr %55, align 8, !tbaa !22
  %57 = getelementptr inbounds nuw %struct.instanceLink, ptr %56, i32 0, i32 3
  %58 = load ptr, ptr %57, align 8, !tbaa !135
  call void @instanceLinkCloseConnection(ptr noundef %53, ptr noundef %58)
  br label %59

59:                                               ; preds = %50, %43
  %60 = load ptr, ptr %7, align 8, !tbaa !11
  %61 = getelementptr inbounds nuw %struct.sentinelRedisInstance, ptr %60, i32 0, i32 5
  %62 = load ptr, ptr %61, align 8, !tbaa !22
  %63 = getelementptr inbounds nuw %struct.instanceLink, ptr %62, i32 0, i32 4
  %64 = load ptr, ptr %63, align 8, !tbaa !136
  %65 = icmp ne ptr %64, null
  br i1 %65, label %66, label %75

66:                                               ; preds = %59
  %67 = load ptr, ptr %7, align 8, !tbaa !11
  %68 = getelementptr inbounds nuw %struct.sentinelRedisInstance, ptr %67, i32 0, i32 5
  %69 = load ptr, ptr %68, align 8, !tbaa !22
  %70 = load ptr, ptr %7, align 8, !tbaa !11
  %71 = getelementptr inbounds nuw %struct.sentinelRedisInstance, ptr %70, i32 0, i32 5
  %72 = load ptr, ptr %71, align 8, !tbaa !22
  %73 = getelementptr inbounds nuw %struct.instanceLink, ptr %72, i32 0, i32 4
  %74 = load ptr, ptr %73, align 8, !tbaa !136
  call void @instanceLinkCloseConnection(ptr noundef %69, ptr noundef %74)
  br label %75

75:                                               ; preds = %66, %59
  %76 = load ptr, ptr %7, align 8, !tbaa !11
  %77 = load ptr, ptr %2, align 8, !tbaa !11
  %78 = icmp eq ptr %76, %77
  br i1 %78, label %79, label %80

79:                                               ; preds = %75
  store i32 2, ptr %8, align 4
  br label %92, !llvm.loop !173

80:                                               ; preds = %75
  %81 = load ptr, ptr %7, align 8, !tbaa !11
  %82 = getelementptr inbounds nuw %struct.sentinelRedisInstance, ptr %81, i32 0, i32 4
  %83 = load ptr, ptr %82, align 8, !tbaa !32
  call void @releaseSentinelAddr(ptr noundef %83)
  %84 = load ptr, ptr %2, align 8, !tbaa !11
  %85 = getelementptr inbounds nuw %struct.sentinelRedisInstance, ptr %84, i32 0, i32 4
  %86 = load ptr, ptr %85, align 8, !tbaa !32
  %87 = call ptr @dupSentinelAddr(ptr noundef %86)
  %88 = load ptr, ptr %7, align 8, !tbaa !11
  %89 = getelementptr inbounds nuw %struct.sentinelRedisInstance, ptr %88, i32 0, i32 4
  store ptr %87, ptr %89, align 8, !tbaa !32
  %90 = load i32, ptr %5, align 4, !tbaa !82
  %91 = add nsw i32 %90, 1
  store i32 %91, ptr %5, align 4, !tbaa !82
  store i32 0, ptr %8, align 4
  br label %92

92:                                               ; preds = %80, %79, %42
  call void @llvm.lifetime.end.p0(i64 8, ptr %7) #16
  call void @llvm.lifetime.end.p0(i64 8, ptr %6) #16
  %93 = load i32, ptr %8, align 4
  switch i32 %93, label %104 [
    i32 0, label %94
    i32 2, label %26
  ]

94:                                               ; preds = %92
  br label %26, !llvm.loop !173

95:                                               ; preds = %26
  %96 = load ptr, ptr %3, align 8, !tbaa !87
  call void @dictReleaseIterator(ptr noundef %96)
  %97 = load i32, ptr %5, align 4, !tbaa !82
  %98 = icmp ne i32 %97, 0
  br i1 %98, label %99, label %102

99:                                               ; preds = %95
  %100 = load ptr, ptr %2, align 8, !tbaa !11
  %101 = load i32, ptr %5, align 4, !tbaa !82
  call void (i32, ptr, ptr, ptr, ...) @sentinelEvent(i32 noundef 2, ptr noundef @.str.44, ptr noundef %100, ptr noundef @.str.45, i32 noundef %101)
  br label %102

102:                                              ; preds = %99, %95
  %103 = load i32, ptr %5, align 4, !tbaa !82
  store i32 1, ptr %8, align 4
  call void @llvm.lifetime.end.p0(i64 4, ptr %5) #16
  call void @llvm.lifetime.end.p0(i64 8, ptr %4) #16
  call void @llvm.lifetime.end.p0(i64 8, ptr %3) #16
  ret i32 %103

104:                                              ; preds = %92
  unreachable
}