; Function Attrs: nounwind uwtable
define dso_local i32 @sentinelUpdateSentinelAddressInAllMasters(ptr noundef captures(address) %0) local_unnamed_addr #0 {
  %2 = load i32, ptr %0, align 8, !tbaa !34
  %3 = and i32 %2, 4
  %.not = icmp eq i32 %3, 0
  br i1 %.not, label %4, label %5, !prof !144

4:                                                ; preds = %1
  tail call void @_serverAssert(ptr noundef nonnull @.str.42, ptr noundef nonnull @.str.21, i32 noundef 1174) #30
  tail call void @abort() #35
  unreachable

5:                                                ; preds = %1
  %6 = load ptr, ptr getelementptr inbounds nuw (i8, ptr @sentinel, i64 56), align 8, !tbaa !65
  %7 = tail call ptr @dictGetIterator(ptr noundef %6) #30
  %8 = tail call ptr @dictNext(ptr noundef %7) #30
  %.not2732 = icmp eq ptr %8, null
  br i1 %.not2732, label %._crit_edge.thread, label %.lr.ph

._crit_edge.thread:                               ; preds = %5
  tail call void @dictReleaseIterator(ptr noundef %7) #30
  br label %67

.lr.ph:                                           ; preds = %5
  %9 = getelementptr inbounds nuw i8, ptr %0, i64 16
  %10 = getelementptr inbounds nuw i8, ptr %0, i64 32
  br label %11

11:                                               ; preds = %.lr.ph, %64
  %12 = phi ptr [ %8, %.lr.ph ], [ %65, %64 ]
  %.033 = phi i32 [ 0, %.lr.ph ], [ %.1, %64 ]
  %13 = tail call ptr @dictGetVal(ptr noundef nonnull %12) #30
  %14 = getelementptr inbounds nuw i8, ptr %13, i64 152
  %15 = load ptr, ptr %14, align 8, !tbaa !5
  %16 = load ptr, ptr %9, align 8, !tbaa !21
  %17 = tail call ptr @getSentinelRedisInstanceByAddrAndRunID(ptr noundef %15, ptr noundef null, i32 noundef 0, ptr noundef %16)
  %18 = icmp eq ptr %17, null
  br i1 %18, label %64, label %19, !llvm.loop !150

19:                                               ; preds = %11
  %20 = getelementptr inbounds nuw i8, ptr %17, i64 40
  %21 = load ptr, ptr %20, align 8, !tbaa !19
  %22 = getelementptr inbounds nuw i8, ptr %21, i64 16
  %23 = load ptr, ptr %22, align 8, !tbaa !124
  %.not29 = icmp eq ptr %23, null
  br i1 %.not29, label %32, label %24

24:                                               ; preds = %19
  store ptr null, ptr %22, align 8, !tbaa !124
  %25 = getelementptr inbounds nuw i8, ptr %21, i64 8
  store i32 0, ptr %25, align 8, !tbaa !118
  %26 = getelementptr inbounds nuw i8, ptr %21, i64 24
  %27 = load ptr, ptr %26, align 8, !tbaa !125
  %28 = icmp eq ptr %27, %23
  br i1 %28, label %29, label %instanceLinkCloseConnection.exit

29:                                               ; preds = %24
  store ptr null, ptr %26, align 8, !tbaa !125
  br label %instanceLinkCloseConnection.exit

instanceLinkCloseConnection.exit:                 ; preds = %24, %29
  %30 = getelementptr inbounds nuw i8, ptr %23, i64 288
  store ptr null, ptr %30, align 8, !tbaa !126
  %31 = getelementptr inbounds nuw i8, ptr %21, i64 4
  store i32 1, ptr %31, align 4, !tbaa !117
  tail call void @redisAsyncFree(ptr noundef nonnull %23) #30
  %.pre = load ptr, ptr %20, align 8, !tbaa !19
  br label %32

32:                                               ; preds = %instanceLinkCloseConnection.exit, %19
  %33 = phi ptr [ %.pre, %instanceLinkCloseConnection.exit ], [ %21, %19 ]
  %34 = getelementptr inbounds nuw i8, ptr %33, i64 24
  %35 = load ptr, ptr %34, align 8, !tbaa !125
  %.not30 = icmp eq ptr %35, null
  br i1 %.not30, label %44, label %36

36:                                               ; preds = %32
  %37 = getelementptr inbounds nuw i8, ptr %33, i64 16
  %38 = load ptr, ptr %37, align 8, !tbaa !124
  %39 = icmp eq ptr %38, %35
  br i1 %39, label %40, label %instanceLinkCloseConnection.exit31

40:                                               ; preds = %36
  store ptr null, ptr %37, align 8, !tbaa !124
  %41 = getelementptr inbounds nuw i8, ptr %33, i64 8
  store i32 0, ptr %41, align 8, !tbaa !118
  br label %instanceLinkCloseConnection.exit31

instanceLinkCloseConnection.exit31:               ; preds = %36, %40
  store ptr null, ptr %34, align 8, !tbaa !125
  %42 = getelementptr inbounds nuw i8, ptr %35, i64 288
  store ptr null, ptr %42, align 8, !tbaa !126
  %43 = getelementptr inbounds nuw i8, ptr %33, i64 4
  store i32 1, ptr %43, align 4, !tbaa !117
  tail call void @redisAsyncFree(ptr noundef nonnull %35) #30
  br label %44

44:                                               ; preds = %instanceLinkCloseConnection.exit31, %32
  %45 = icmp eq ptr %17, %0
  br i1 %45, label %64, label %46, !llvm.loop !150

46:                                               ; preds = %44
  %47 = getelementptr inbounds nuw i8, ptr %17, i64 32
  %48 = load ptr, ptr %47, align 8, !tbaa !29
  %49 = load ptr, ptr %48, align 8, !tbaa !30
  tail call void @sdsfree(ptr noundef %49) #30
  %50 = getelementptr inbounds nuw i8, ptr %48, i64 8
  %51 = load ptr, ptr %50, align 8, !tbaa !32
  tail call void @sdsfree(ptr noundef %51) #30
  tail call void @zfree(ptr noundef nonnull %48) #30
  %52 = load ptr, ptr %10, align 8, !tbaa !29
  %53 = tail call noalias dereferenceable_or_null(24) ptr @zmalloc(i64 noundef 24) #33
  %54 = load ptr, ptr %52, align 8, !tbaa !30
  %55 = tail call ptr @sdsnew(ptr noundef %54) #30
  store ptr %55, ptr %53, align 8, !tbaa !30
  %56 = getelementptr inbounds nuw i8, ptr %52, i64 8
  %57 = load ptr, ptr %56, align 8, !tbaa !32
  %58 = tail call ptr @sdsnew(ptr noundef %57) #30
  %59 = getelementptr inbounds nuw i8, ptr %53, i64 8
  store ptr %58, ptr %59, align 8, !tbaa !32
  %60 = getelementptr inbounds nuw i8, ptr %52, i64 16
  %61 = load i32, ptr %60, align 8, !tbaa !86
  %62 = getelementptr inbounds nuw i8, ptr %53, i64 16
  store i32 %61, ptr %62, align 8, !tbaa !86
  store ptr %53, ptr %47, align 8, !tbaa !29
  %63 = add nsw i32 %.033, 1
  br label %64

64:                                               ; preds = %44, %11, %46
  %.1 = phi i32 [ %63, %46 ], [ %.033, %11 ], [ %.033, %44 ]
  %65 = tail call ptr @dictNext(ptr noundef %7) #30
  %.not27 = icmp eq ptr %65, null
  br i1 %.not27, label %._crit_edge, label %11

._crit_edge:                                      ; preds = %64
  tail call void @dictReleaseIterator(ptr noundef %7) #30
  %.not28 = icmp eq i32 %.1, 0
  br i1 %.not28, label %67, label %66

66:                                               ; preds = %._crit_edge
  tail call void (i32, ptr, ptr, ptr, ...) @sentinelEvent(i32 noundef 2, ptr noundef nonnull @.str.44, ptr noundef nonnull %0, ptr noundef nonnull @.str.45, i32 noundef %.1)
  br label %67

67:                                               ; preds = %._crit_edge.thread, %66, %._crit_edge
  %.0.lcssa36 = phi i32 [ 0, %._crit_edge.thread ], [ %.1, %66 ], [ 0, %._crit_edge ]
  ret i32 %.0.lcssa36
}